; Function Attrs: mustprogress nofree norecurse nosync nounwind willreturn memory(readwrite, inaccessiblemem: none) uwtable
define void @_ZNK19OpenColorIO_v2_5dev10ColorSpace17getAllocationVarsEPf(ptr noundef nonnull readonly align 8 captures(none) dereferenceable(8) %0, ptr noundef writeonly captures(none) %1) local_unnamed_addr #11 align 2 {
  %3 = load ptr, ptr %0, align 8, !tbaa !52
  %4 = getelementptr inbounds nuw i8, ptr %3, i64 200
  %5 = load ptr, ptr %4, align 8, !tbaa !85
  %6 = getelementptr inbounds nuw i8, ptr %3, i64 208
  %7 = load ptr, ptr %6, align 8, !tbaa !85
  %8 = icmp eq ptr %5, %7
  br i1 %8, label %13, label %9

9:                                                ; preds = %2
  %10 = ptrtoint ptr %7 to i64
  %11 = ptrtoint ptr %5 to i64
  %12 = sub i64 %10, %11
  tail call void @llvm.memcpy.p0.p0.i64(ptr align 4 %1, ptr nonnull align 4 %5, i64 %12, i1 false)
  br label %13

13:                                               ; preds = %9, %2
  ret void
}